target datalayout = "e-m:e-p270:32:32-p271:32:32-p272:64:64-i64:64-i128:128-f80:128-n8:16:32:64-S128"
target triple = "x86_64-pc-linux-gnu"

%struct.aiString = type { i32, [1024 x i8] }

@.str.13 = private unnamed_addr constant [8 x i8] c"file://\00", align 1

; Function Attrs: inlinehint mustprogress nounwind uwtable
define linkonce_odr hidden noundef i32 @_ZN6Assimp9strtoul16EPKcPS1_(ptr noundef %0, ptr noundef %1) #3 comdat {
  %3 = alloca ptr, align 8
  %4 = alloca ptr, align 8
  %5 = alloca i32, align 4
  store ptr %0, ptr %3, align 8
  store ptr %1, ptr %4, align 8
  call void @llvm.lifetime.start.p0(i64 4, ptr %5) #4
  store i32 0, ptr %5, align 4
  br label %6

6:                                                ; preds = %65, %2
  %7 = load ptr, ptr %3, align 8
  %8 = load i8, ptr %7, align 1
  %9 = sext i8 %8 to i32
  %10 = icmp sge i32 %9, 48
  br i1 %10, label %11, label %24

11:                                               ; preds = %6
  %12 = load ptr, ptr %3, align 8
  %13 = load i8, ptr %12, align 1
  %14 = sext i8 %13 to i32
  %15 = icmp sle i32 %14, 57
  br i1 %15, label %16, label %24

16:                                               ; preds = %11
  %17 = load i32, ptr %5, align 4
  %18 = shl i32 %17, 4
  %19 = load ptr, ptr %3, align 8
  %20 = load i8, ptr %19, align 1
  %21 = sext i8 %20 to i32
  %22 = sub nsw i32 %21, 48
  %23 = add i32 %18, %22
  store i32 %23, ptr %5, align 4
  br label %65

24:                                               ; preds = %11, %6
  %25 = load ptr, ptr %3, align 8
  %26 = load i8, ptr %25, align 1
  %27 = sext i8 %26 to i32
  %28 = icmp sge i32 %27, 65
  br i1 %28, label %29, label %43

29:                                               ; preds = %24
  %30 = load ptr, ptr %3, align 8
  %31 = load i8, ptr %30, align 1
  %32 = sext i8 %31 to i32
  %33 = icmp sle i32 %32, 70
  br i1 %33, label %34, label %43

34:                                               ; preds = %29
  %35 = load i32, ptr %5, align 4
  %36 = shl i32 %35, 4
  %37 = load ptr, ptr %3, align 8
  %38 = load i8, ptr %37, align 1
  %39 = sext i8 %38 to i32
  %40 = sub nsw i32 %39, 65
  %41 = add i32 %36, %40
  %42 = add i32 %41, 10
  store i32 %42, ptr %5, align 4
  br label %64

43:                                               ; preds = %29, %24
  %44 = load ptr, ptr %3, align 8
  %45 = load i8, ptr %44, align 1
  %46 = sext i8 %45 to i32
  %47 = icmp sge i32 %46, 97
  br i1 %47, label %48, label %62

48:                                               ; preds = %43
  %49 = load ptr, ptr %3, align 8
  %50 = load i8, ptr %49, align 1
  %51 = sext i8 %50 to i32
  %52 = icmp sle i32 %51, 102
  br i1 %52, label %53, label %62

53:                                               ; preds = %48
  %54 = load i32, ptr %5, align 4
  %55 = shl i32 %54, 4
  %56 = load ptr, ptr %3, align 8
  %57 = load i8, ptr %56, align 1
  %58 = sext i8 %57 to i32
  %59 = sub nsw i32 %58, 97
  %60 = add i32 %55, %59
  %61 = add i32 %60, 10
  store i32 %61, ptr %5, align 4
  br label %63

62:                                               ; preds = %48, %43
  br label %68

63:                                               ; preds = %53
  br label %64

64:                                               ; preds = %63, %34
  br label %65

65:                                               ; preds = %64, %16
  %66 = load ptr, ptr %3, align 8
  %67 = getelementptr inbounds nuw i8, ptr %66, i32 1
  store ptr %67, ptr %3, align 8
  br label %6, !llvm.loop !9

68:                                               ; preds = %62
  %69 = load ptr, ptr %4, align 8
  %70 = icmp ne ptr %69, null
  br i1 %70, label %71, label %74

71:                                               ; preds = %68
  %72 = load ptr, ptr %3, align 8
  %73 = load ptr, ptr %4, align 8
  store ptr %72, ptr %73, align 8
  br label %74

74:                                               ; preds = %71, %68
  %75 = load i32, ptr %5, align 4
  call void @llvm.lifetime.end.p0(i64 4, ptr %5) #4
  ret i32 %75
}

; Function Attrs: mustprogress uwtable
define hidden void @_ZN6Assimp13ColladaParser13UriDecodePathER8aiString(ptr noundef nonnull align 4 dereferenceable(1028) %0) #5 align 2 {
  %2 = alloca ptr, align 8
  %3 = alloca ptr, align 8
  %4 = alloca ptr, align 8
  %5 = alloca [3 x i8], align 1
  %6 = alloca i64, align 8
  store ptr %0, ptr %2, align 8
  %7 = load ptr, ptr %2, align 8
  %8 = getelementptr inbounds nuw %struct.aiString, ptr %7, i32 0, i32 1
  %9 = getelementptr inbounds [1024 x i8], ptr %8, i64 0, i64 0
  %10 = call i32 @strncmp(ptr noundef %9, ptr noundef @.str.13, i64 noundef 7) #28
  %11 = icmp eq i32 0, %10
  br i1 %11, label %12, label %35

12:                                               ; preds = %1
  %13 = load ptr, ptr %2, align 8
  %14 = getelementptr inbounds nuw %struct.aiString, ptr %13, i32 0, i32 0
  %15 = load i32, ptr %14, align 4
  %16 = sub i32 %15, 7
  store i32 %16, ptr %14, align 4
  %17 = load ptr, ptr %2, align 8
  %18 = getelementptr inbounds nuw %struct.aiString, ptr %17, i32 0, i32 1
  %19 = getelementptr inbounds [1024 x i8], ptr %18, i64 0, i64 0
  %20 = load ptr, ptr %2, align 8
  %21 = getelementptr inbounds nuw %struct.aiString, ptr %20, i32 0, i32 1
  %22 = getelementptr inbounds [1024 x i8], ptr %21, i64 0, i64 0
  %23 = getelementptr inbounds i8, ptr %22, i64 7
  %24 = load ptr, ptr %2, align 8
  %25 = getelementptr inbounds nuw %struct.aiString, ptr %24, i32 0, i32 0
  %26 = load i32, ptr %25, align 4
  %27 = zext i32 %26 to i64
  call void @llvm.memmove.p0.p0.i64(ptr align 4 %19, ptr align 1 %23, i64 %27, i1 false)
  %28 = load ptr, ptr %2, align 8
  %29 = getelementptr inbounds nuw %struct.aiString, ptr %28, i32 0, i32 1
  %30 = load ptr, ptr %2, align 8
  %31 = getelementptr inbounds nuw %struct.aiString, ptr %30, i32 0, i32 0
  %32 = load i32, ptr %31, align 4
  %33 = zext i32 %32 to i64
  %34 = getelementptr inbounds nuw [1024 x i8], ptr %29, i64 0, i64 %33
  store i8 0, ptr %34, align 1
  br label %35

35:                                               ; preds = %12, %1
  %36 = load ptr, ptr %2, align 8
  %37 = getelementptr inbounds nuw %struct.aiString, ptr %36, i32 0, i32 1
  %38 = getelementptr inbounds [1024 x i8], ptr %37, i64 0, i64 0
  %39 = load i8, ptr %38, align 4
  %40 = sext i8 %39 to i32
  %41 = icmp eq i32 %40, 47
  br i1 %41, label %42, label %80

42:                                               ; preds = %35
  %43 = load ptr, ptr %2, align 8
  %44 = getelementptr inbounds nuw %struct.aiString, ptr %43, i32 0, i32 1
  %45 = getelementptr inbounds [1024 x i8], ptr %44, i64 0, i64 1
  %46 = load i8, ptr %45, align 1
  %47 = zext i8 %46 to i32
  %48 = call i32 @isalpha(i32 noundef %47) #28
  %49 = icmp ne i32 %48, 0
  br i1 %49, label %50, label %80

50:                                               ; preds = %42
  %51 = load ptr, ptr %2, align 8
  %52 = getelementptr inbounds nuw %struct.aiString, ptr %51, i32 0, i32 1
  %53 = getelementptr inbounds [1024 x i8], ptr %52, i64 0, i64 2
  %54 = load i8, ptr %53, align 2
  %55 = sext i8 %54 to i32
  %56 = icmp eq i32 %55, 58
  br i1 %56, label %57, label %80

57:                                               ; preds = %50
  %58 = load ptr, ptr %2, align 8
  %59 = getelementptr inbounds nuw %struct.aiString, ptr %58, i32 0, i32 0
  %60 = load i32, ptr %59, align 4
  %61 = add i32 %60, -1
  store i32 %61, ptr %59, align 4
  %62 = load ptr, ptr %2, align 8
  %63 = getelementptr inbounds nuw %struct.aiString, ptr %62, i32 0, i32 1
  %64 = getelementptr inbounds [1024 x i8], ptr %63, i64 0, i64 0
  %65 = load ptr, ptr %2, align 8
  %66 = getelementptr inbounds nuw %struct.aiString, ptr %65, i32 0, i32 1
  %67 = getelementptr inbounds [1024 x i8], ptr %66, i64 0, i64 0
  %68 = getelementptr inbounds i8, ptr %67, i64 1
  %69 = load ptr, ptr %2, align 8
  %70 = getelementptr inbounds nuw %struct.aiString, ptr %69, i32 0, i32 0
  %71 = load i32, ptr %70, align 4
  %72 = zext i32 %71 to i64
  call void @llvm.memmove.p0.p0.i64(ptr align 4 %64, ptr align 1 %68, i64 %72, i1 false)
  %73 = load ptr, ptr %2, align 8
  %74 = getelementptr inbounds nuw %struct.aiString, ptr %73, i32 0, i32 1
  %75 = load ptr, ptr %2, align 8
  %76 = getelementptr inbounds nuw %struct.aiString, ptr %75, i32 0, i32 0
  %77 = load i32, ptr %76, align 4
  %78 = zext i32 %77 to i64
  %79 = getelementptr inbounds nuw [1024 x i8], ptr %74, i64 0, i64 %78
  store i8 0, ptr %79, align 1
  br label %80

80:                                               ; preds = %57, %50, %42, %35
  call void @llvm.lifetime.start.p0(i64 8, ptr %3) #4
  %81 = load ptr, ptr %2, align 8
  %82 = getelementptr inbounds nuw %struct.aiString, ptr %81, i32 0, i32 1
  %83 = getelementptr inbounds [1024 x i8], ptr %82, i64 0, i64 0
  store ptr %83, ptr %3, align 8
  call void @llvm.lifetime.start.p0(i64 8, ptr %4) #4
  %84 = load ptr, ptr %2, align 8
  %85 = getelementptr inbounds nuw %struct.aiString, ptr %84, i32 0, i32 1
  %86 = getelementptr inbounds [1024 x i8], ptr %85, i64 0, i64 0
  store ptr %86, ptr %4, align 8
  br label %87

87:                                               ; preds = %141, %80
  %88 = load ptr, ptr %4, align 8
  %89 = load ptr, ptr %2, align 8
  %90 = getelementptr inbounds nuw %struct.aiString, ptr %89, i32 0, i32 1
  %91 = getelementptr inbounds [1024 x i8], ptr %90, i64 0, i64 0
  %92 = load ptr, ptr %2, align 8
  %93 = getelementptr inbounds nuw %struct.aiString, ptr %92, i32 0, i32 0
  %94 = load i32, ptr %93, align 4
  %95 = zext i32 %94 to i64
  %96 = getelementptr inbounds nuw i8, ptr %91, i64 %95
  %97 = icmp ne ptr %88, %96
  br i1 %97, label %99, label %98

98:                                               ; preds = %87
  call void @llvm.lifetime.end.p0(i64 8, ptr %4) #4
  br label %142

99:                                               ; preds = %87
  %100 = load ptr, ptr %4, align 8
  %101 = load i8, ptr %100, align 1
  %102 = sext i8 %101 to i32
  %103 = icmp eq i32 %102, 37
  br i1 %103, label %104, label %135

104:                                              ; preds = %99
  %105 = load ptr, ptr %4, align 8
  %106 = getelementptr inbounds i8, ptr %105, i64 3
  %107 = load ptr, ptr %2, align 8
  %108 = getelementptr inbounds nuw %struct.aiString, ptr %107, i32 0, i32 1
  %109 = getelementptr inbounds [1024 x i8], ptr %108, i64 0, i64 0
  %110 = load ptr, ptr %2, align 8
  %111 = getelementptr inbounds nuw %struct.aiString, ptr %110, i32 0, i32 0
  %112 = load i32, ptr %111, align 4
  %113 = zext i32 %112 to i64
  %114 = getelementptr inbounds nuw i8, ptr %109, i64 %113
  %115 = icmp ult ptr %106, %114
  br i1 %115, label %116, label %135

116:                                              ; preds = %104
  call void @llvm.lifetime.start.p0(i64 3, ptr %5) #4
  %117 = load ptr, ptr %4, align 8
  %118 = getelementptr inbounds i8, ptr %117, i64 1
  %119 = load i8, ptr %118, align 1
  store i8 %119, ptr %5, align 1
  %120 = getelementptr inbounds i8, ptr %5, i64 1
  %121 = load ptr, ptr %4, align 8
  %122 = getelementptr inbounds i8, ptr %121, i64 2
  %123 = load i8, ptr %122, align 1
  store i8 %123, ptr %120, align 1
  %124 = getelementptr inbounds i8, ptr %5, i64 2
  store i8 0, ptr %124, align 1
  call void @llvm.lifetime.start.p0(i64 8, ptr %6) #4
  %125 = getelementptr inbounds [3 x i8], ptr %5, i64 0, i64 0
  %126 = call noundef i32 @_ZN6Assimp9strtoul16EPKcPS1_(ptr noundef %125, ptr noundef null)
  %127 = zext i32 %126 to i64
  store i64 %127, ptr %6, align 8
  %128 = load ptr, ptr %4, align 8
  %129 = getelementptr inbounds i8, ptr %128, i64 3
  store ptr %129, ptr %4, align 8
  %130 = load i64, ptr %6, align 8
  %131 = and i64 %130, 255
  %132 = trunc i64 %131 to i8
  %133 = load ptr, ptr %3, align 8
  %134 = getelementptr inbounds nuw i8, ptr %133, i32 1
  store ptr %134, ptr %3, align 8
  store i8 %132, ptr %133, align 1
  call void @llvm.lifetime.end.p0(i64 8, ptr %6) #4
  call void @llvm.lifetime.end.p0(i64 3, ptr %5) #4
  br label %141

135:                                              ; preds = %104, %99
  %136 = load ptr, ptr %4, align 8
  %137 = getelementptr inbounds nuw i8, ptr %136, i32 1
  store ptr %137, ptr %4, align 8
  %138 = load i8, ptr %136, align 1
  %139 = load ptr, ptr %3, align 8
  %140 = getelementptr inbounds nuw i8, ptr %139, i32 1
  store ptr %140, ptr %3, align 8
  store i8 %138, ptr %139, align 1
  br label %141

141:                                              ; preds = %135, %116
  br label %87, !llvm.loop !8

142:                                              ; preds = %98
  %143 = load ptr, ptr %3, align 8
  store i8 0, ptr %143, align 1
  %144 = load ptr, ptr %3, align 8
  %145 = load ptr, ptr %2, align 8
  %146 = getelementptr inbounds nuw %struct.aiString, ptr %145, i32 0, i32 1
  %147 = getelementptr inbounds [1024 x i8], ptr %146, i64 0, i64 0
  %148 = ptrtoint ptr %144 to i64
  %149 = ptrtoint ptr %147 to i64
  %150 = sub i64 %148, %149
  %151 = trunc i64 %150 to i32
  %152 = load ptr, ptr %2, align 8
  %153 = getelementptr inbounds nuw %struct.aiString, ptr %152, i32 0, i32 0
  store i32 %151, ptr %153, align 4
  call void @llvm.lifetime.end.p0(i64 8, ptr %3) #4
  ret void
}