; Function Attrs: mustprogress nofree nounwind memory(read, argmem: readwrite) uwtable
define hidden void @_ZN6Assimp13ColladaParser13UriDecodePathER8aiString(ptr noundef nonnull align 4 dereferenceable(1028) %0) local_unnamed_addr #12 align 2 {
  %2 = alloca [3 x i8], align 1
  %.ptr = getelementptr inbounds nuw i8, ptr %0, i64 4
  %bcmp = tail call i32 @bcmp(ptr noundef nonnull dereferenceable(7) %.ptr, ptr noundef nonnull dereferenceable(7) @.str.13, i64 7)
  %3 = icmp eq i32 %bcmp, 0
  br i1 %3, label %4, label %10

4:                                                ; preds = %1
  %5 = load i32, ptr %0, align 4
  %6 = add i32 %5, -7
  store i32 %6, ptr %0, align 4
  %7 = getelementptr inbounds nuw i8, ptr %0, i64 11
  %8 = zext i32 %6 to i64
  tail call void @llvm.memmove.p0.p0.i64(ptr nonnull align 4 %.ptr, ptr nonnull align 1 %7, i64 %8, i1 false)
  %9 = getelementptr inbounds nuw [1024 x i8], ptr %.ptr, i64 0, i64 %8
  store i8 0, ptr %9, align 1
  br label %10

10:                                               ; preds = %4, %1
  %11 = load i8, ptr %.ptr, align 4
  %12 = icmp eq i8 %11, 47
  br i1 %12, label %13, label %._crit_edge46

._crit_edge46:                                    ; preds = %10
  %.pre = load i32, ptr %0, align 4
  br label %25

13:                                               ; preds = %10
  %14 = getelementptr inbounds nuw i8, ptr %0, i64 5
  %15 = load i8, ptr %14, align 1
  %16 = zext i8 %15 to i32
  %17 = tail call i32 @isalpha(i32 noundef %16) #38
  %.not = icmp ne i32 %17, 0
  %18 = getelementptr inbounds nuw i8, ptr %0, i64 6
  %19 = load i8, ptr %18, align 2
  %20 = icmp eq i8 %19, 58
  %or.cond = select i1 %.not, i1 %20, i1 false
  %.pre47 = load i32, ptr %0, align 4
  br i1 %or.cond, label %21, label %25

21:                                               ; preds = %13
  %22 = add i32 %.pre47, -1
  store i32 %22, ptr %0, align 4
  %23 = zext i32 %22 to i64
  tail call void @llvm.memmove.p0.p0.i64(ptr nonnull align 4 %.ptr, ptr nonnull align 1 %14, i64 %23, i1 false)
  %24 = getelementptr inbounds nuw [1024 x i8], ptr %.ptr, i64 0, i64 %23
  store i8 0, ptr %24, align 1
  br label %25

25:                                               ; preds = %._crit_edge46, %21, %13
  %26 = phi i32 [ %.pre, %._crit_edge46 ], [ %22, %21 ], [ %.pre47, %13 ]
  %.not3942 = icmp eq i32 %26, 0
  br i1 %.not3942, label %._crit_edge, label %.lr.ph

.lr.ph:                                           ; preds = %25
  %27 = zext i32 %26 to i64
  %28 = getelementptr inbounds nuw i8, ptr %0, i64 %27
  %.ptr45 = getelementptr inbounds nuw i8, ptr %28, i64 4
  %29 = getelementptr inbounds nuw i8, ptr %2, i64 1
  %30 = getelementptr inbounds nuw i8, ptr %2, i64 2
  br label %35

._crit_edge:                                      ; preds = %69, %25
  %.0.lcssa = phi ptr [ %.ptr, %25 ], [ %.1, %69 ]
  store i8 0, ptr %.0.lcssa, align 1
  %31 = ptrtoint ptr %.0.lcssa to i64
  %32 = ptrtoint ptr %.ptr to i64
  %33 = sub i64 %31, %32
  %34 = trunc i64 %33 to i32
  store i32 %34, ptr %0, align 4
  ret void

35:                                               ; preds = %.lr.ph, %69
  %36 = phi ptr [ %.ptr45, %.lr.ph ], [ %72, %69 ]
  %.044 = phi ptr [ %.ptr, %.lr.ph ], [ %.1, %69 ]
  %.03543 = phi ptr [ %.ptr, %.lr.ph ], [ %.136, %69 ]
  %37 = load i8, ptr %.03543, align 1
  %38 = icmp eq i8 %37, 37
  br i1 %38, label %39, label %67

39:                                               ; preds = %35
  %40 = getelementptr inbounds nuw i8, ptr %.03543, i64 3
  %41 = icmp ult ptr %40, %36
  br i1 %41, label %42, label %67

42:                                               ; preds = %39
  call void @llvm.lifetime.start.p0(i64 3, ptr nonnull %2) #35
  %43 = getelementptr inbounds nuw i8, ptr %.03543, i64 1
  %44 = load i8, ptr %43, align 1
  store i8 %44, ptr %2, align 1
  %45 = getelementptr inbounds nuw i8, ptr %.03543, i64 2
  %46 = load i8, ptr %45, align 1
  store i8 %46, ptr %29, align 1
  store i8 0, ptr %30, align 1
  br label %47

47:                                               ; preds = %65, %42
  %48 = phi i8 [ %44, %42 ], [ %.pre48, %65 ]
  %.016.i = phi ptr [ %2, %42 ], [ %66, %65 ]
  %.0.i = phi i8 [ 0, %42 ], [ %.1.i, %65 ]
  %49 = add i8 %48, -48
  %or.cond.i = icmp ult i8 %49, 10
  br i1 %or.cond.i, label %50, label %53

50:                                               ; preds = %47
  %51 = shl i8 %.0.i, 4
  %52 = or disjoint i8 %49, %51
  br label %65

53:                                               ; preds = %47
  %54 = add i8 %48, -65
  %or.cond23.i = icmp ult i8 %54, 6
  br i1 %or.cond23.i, label %55, label %59

55:                                               ; preds = %53
  %56 = shl i8 %.0.i, 4
  %57 = or disjoint i8 %56, 10
  %58 = add i8 %57, %54
  br label %65

59:                                               ; preds = %53
  %60 = add i8 %48, -97
  %or.cond24.i = icmp ult i8 %60, 6
  br i1 %or.cond24.i, label %61, label %_ZN6Assimp9strtoul16EPKcPS1_.exit

61:                                               ; preds = %59
  %62 = shl i8 %.0.i, 4
  %63 = or disjoint i8 %62, 10
  %64 = add i8 %63, %60
  br label %65

65:                                               ; preds = %61, %55, %50
  %.1.i = phi i8 [ %52, %50 ], [ %58, %55 ], [ %64, %61 ]
  %66 = getelementptr inbounds nuw i8, ptr %.016.i, i64 1
  %.pre48 = load i8, ptr %66, align 1
  br label %47, !llvm.loop !24

_ZN6Assimp9strtoul16EPKcPS1_.exit:                ; preds = %59
  store i8 %.0.i, ptr %.044, align 1
  call void @llvm.lifetime.end.p0(i64 3, ptr nonnull %2) #35
  br label %69

67:                                               ; preds = %39, %35
  %68 = getelementptr inbounds nuw i8, ptr %.03543, i64 1
  store i8 %37, ptr %.044, align 1
  br label %69

69:                                               ; preds = %67, %_ZN6Assimp9strtoul16EPKcPS1_.exit
  %.136 = phi ptr [ %40, %_ZN6Assimp9strtoul16EPKcPS1_.exit ], [ %68, %67 ]
  %.1 = getelementptr inbounds nuw i8, ptr %.044, i64 1
  %70 = load i32, ptr %0, align 4
  %71 = zext i32 %70 to i64
  %72 = getelementptr inbounds nuw i8, ptr %.ptr, i64 %71
  %.not39 = icmp eq ptr %.136, %72
  br i1 %.not39, label %._crit_edge, label %35, !llvm.loop !25
}